target datalayout = "e-m:e-p270:32:32-p271:32:32-p272:64:64-i64:64-i128:128-f80:128-n8:16:32:64-S128"
target triple = "x86_64-pc-linux-gnu"

%"struct.std::_Rb_tree_header" = type { %"struct.std::_Rb_tree_node_base", i64 }
%"struct.std::_Rb_tree_node_base" = type { i32, ptr, ptr, ptr }
%"class.(anonymous namespace)::MergeCondVisitor" = type { %class.VNVisitor, %class.VDouble0, %class.VDouble0, %class.VDouble0, %class.VDouble0, ptr, ptr, ptr, ptr, i32, ptr, ptr }
%class.VNVisitor = type { %class.VNVisitorConst, %class.VNDeleter }
%class.VNVisitorConst = type { ptr }
%class.VNDeleter = type { %"class.std::vector" }
%"class.std::vector" = type { %"struct.std::_Vector_base" }
%"struct.std::_Vector_base" = type { %"struct.std::_Vector_base<AstNode *, std::allocator<AstNode *>>::_Vector_impl" }
%"struct.std::_Vector_base<AstNode *, std::allocator<AstNode *>>::_Vector_impl" = type { %"struct.std::_Vector_base<AstNode *, std::allocator<AstNode *>>::_Vector_impl_data" }
%"struct.std::_Vector_base<AstNode *, std::allocator<AstNode *>>::_Vector_impl_data" = type { ptr, ptr, ptr }
%class.VDouble0 = type { double }
%"struct.(anonymous namespace)::StmtProperties" = type { ptr, %"class.std::set.62", %"class.std::set.62", i8, ptr }
%"class.std::set.62" = type { %"class.std::_Rb_tree.63" }
%"class.std::_Rb_tree.63" = type { %"struct.std::_Rb_tree<const AstVar *, const AstVar *, std::_Identity<const AstVar *>, std::less<const AstVar *>>::_Rb_tree_impl" }
%"struct.std::_Rb_tree<const AstVar *, const AstVar *, std::_Identity<const AstVar *>, std::less<const AstVar *>>::_Rb_tree_impl" = type { %"struct.std::_Rb_tree_key_compare.67", %"struct.std::_Rb_tree_header" }
%"struct.std::_Rb_tree_key_compare.67" = type { %"struct.std::less.68" }
%"struct.std::less.68" = type { i8 }

; Function Attrs: mustprogress uwtable
define linkonce_odr dso_local noundef zeroext i1 @_ZNK7AstNode8sameTreeEPKS_(ptr noundef nonnull align 8 dereferenceable(152) %0, ptr noundef %1) #4 comdat align 2 {
  %3 = alloca ptr, align 8
  %4 = alloca ptr, align 8
  store ptr %0, ptr %3, align 8
  store ptr %1, ptr %4, align 8
  %5 = load ptr, ptr %3, align 8
  %6 = load ptr, ptr %4, align 8
  %7 = call noundef zeroext i1 @_ZN7AstNode12sameTreeIterEPKS_S1_bb(ptr noundef %5, ptr noundef %6, i1 noundef zeroext true, i1 noundef zeroext false)
  ret i1 %7
}

; Function Attrs: mustprogress uwtable
define internal void @_ZN12_GLOBAL__N_116MergeCondVisitor22mergeEndIfIncompatibleEPK7AstNodeS3_(ptr noundef nonnull align 8 dereferenceable(120) %0, ptr noundef %1, ptr noundef %2) #4 align 2 {
  %4 = alloca ptr, align 8
  %5 = alloca ptr, align 8
  %6 = alloca ptr, align 8
  store ptr %0, ptr %4, align 8
  store ptr %1, ptr %5, align 8
  store ptr %2, ptr %6, align 8
  %7 = load ptr, ptr %4, align 8
  %8 = getelementptr inbounds %"class.(anonymous namespace)::MergeCondVisitor", ptr %7, i32 0, i32 5
  %9 = load ptr, ptr %8, align 8
  %10 = icmp ne ptr %9, null
  br i1 %10, label %11, label %22

11:                                               ; preds = %3
  %12 = getelementptr inbounds %"class.(anonymous namespace)::MergeCondVisitor", ptr %7, i32 0, i32 8
  %13 = load ptr, ptr %12, align 8
  %14 = load ptr, ptr %5, align 8
  %15 = icmp ne ptr %13, %14
  br i1 %15, label %21, label %16

16:                                               ; preds = %11
  %17 = load ptr, ptr %6, align 8
  %18 = getelementptr inbounds %"class.(anonymous namespace)::MergeCondVisitor", ptr %7, i32 0, i32 6
  %19 = load ptr, ptr %18, align 8
  %20 = call noundef zeroext i1 @_ZNK7AstNode8sameTreeEPKS_(ptr noundef nonnull align 8 dereferenceable(152) %17, ptr noundef %19)
  br i1 %20, label %22, label %21

21:                                               ; preds = %16, %11
  call void @_ZN12_GLOBAL__N_116MergeCondVisitor8mergeEndEv(ptr noundef nonnull align 8 dereferenceable(120) %7)
  br label %22

22:                                               ; preds = %21, %16, %3
  ret void
}

; Function Attrs: mustprogress uwtable
define internal void @_ZN12_GLOBAL__N_116MergeCondVisitor5visitEP13AstNodeAssign(ptr noundef nonnull align 8 dereferenceable(120) %0, ptr noundef %1) unnamed_addr #4 align 2 {
  %3 = alloca ptr, align 8
  %4 = alloca ptr, align 8
  %5 = alloca ptr, align 8
  store ptr %0, ptr %3, align 8
  store ptr %1, ptr %4, align 8
  %6 = load ptr, ptr %3, align 8
  %7 = getelementptr inbounds %"class.(anonymous namespace)::MergeCondVisitor", ptr %6, i32 0, i32 11
  %8 = load ptr, ptr %7, align 8
  %9 = load ptr, ptr %4, align 8
  %10 = call noundef nonnull align 8 dereferenceable(120) ptr @_ZN20AstUserAllocatorBaseI11AstNodeStmtN12_GLOBAL__N_114StmtPropertiesELi3EEclIJEEERS2_PS0_DpOT_(ptr noundef nonnull align 8 dereferenceable(80) %8, ptr noundef %9)
  %11 = getelementptr inbounds %"struct.(anonymous namespace)::StmtProperties", ptr %10, i32 0, i32 0
  %12 = load ptr, ptr %11, align 8
  store ptr %12, ptr %5, align 8
  %13 = load ptr, ptr %5, align 8
  %14 = icmp ne ptr %13, null
  br i1 %14, label %15, label %25

15:                                               ; preds = %2
  %16 = load ptr, ptr %4, align 8
  %17 = call noundef zeroext i1 @_ZN12_GLOBAL__N_116MergeCondVisitor20checkOrMakeMergeableEPK11AstNodeStmt(ptr noundef nonnull align 8 dereferenceable(120) %6, ptr noundef %16)
  br i1 %17, label %19, label %18

18:                                               ; preds = %15
  br label %33

19:                                               ; preds = %15
  %20 = load ptr, ptr %4, align 8
  %21 = load ptr, ptr %5, align 8
  call void @_ZN12_GLOBAL__N_116MergeCondVisitor22mergeEndIfIncompatibleEPK7AstNodeS3_(ptr noundef nonnull align 8 dereferenceable(120) %6, ptr noundef %20, ptr noundef %21)
  %22 = load ptr, ptr %4, align 8
  %23 = load ptr, ptr %5, align 8
  %24 = call noundef zeroext i1 @_ZN12_GLOBAL__N_116MergeCondVisitor9addToListEP11AstNodeStmtP11AstNodeExpr(ptr noundef nonnull align 8 dereferenceable(120) %6, ptr noundef %22, ptr noundef %23)
  br label %33

25:                                               ; preds = %2
  %26 = getelementptr inbounds %"class.(anonymous namespace)::MergeCondVisitor", ptr %6, i32 0, i32 5
  %27 = load ptr, ptr %26, align 8
  %28 = icmp ne ptr %27, null
  br i1 %28, label %29, label %32

29:                                               ; preds = %25
  %30 = load ptr, ptr %4, align 8
  %31 = call noundef zeroext i1 @_ZN12_GLOBAL__N_116MergeCondVisitor24addIfHelpfulElseEndMergeEP11AstNodeStmt(ptr noundef nonnull align 8 dereferenceable(120) %6, ptr noundef %30)
  br label %32

32:                                               ; preds = %29, %25
  br label %33

33:                                               ; preds = %32, %19, %18
  ret void
}