; Function Attrs: mustprogress uwtable
define internal void @_ZN12_GLOBAL__N_116MergeCondVisitor5visitEP13AstNodeAssign(ptr noundef nonnull align 8 dereferenceable(120) %0, ptr noundef %1) unnamed_addr #3 align 2 {
  %3 = getelementptr inbounds i8, ptr %0, i64 112
  %4 = load ptr, ptr %3, align 8
  %5 = tail call fastcc noundef nonnull align 8 dereferenceable(120) ptr @_ZN20AstUserAllocatorBaseI11AstNodeStmtN12_GLOBAL__N_114StmtPropertiesELi3EEclIJEEERS2_PS0_DpOT_(ptr noundef nonnull align 8 dereferenceable(80) %4, ptr noundef %1)
  %6 = load ptr, ptr %5, align 8
  %.not = icmp eq ptr %6, null
  br i1 %.not, label %20, label %7

7:                                                ; preds = %2
  %8 = tail call fastcc noundef zeroext i1 @_ZN12_GLOBAL__N_116MergeCondVisitor20checkOrMakeMergeableEPK11AstNodeStmt(ptr noundef nonnull align 8 dereferenceable(120) %0, ptr noundef %1)
  br i1 %8, label %9, label %25

9:                                                ; preds = %7
  %10 = getelementptr inbounds i8, ptr %0, i64 64
  %11 = load ptr, ptr %10, align 8
  %.not.i = icmp eq ptr %11, null
  br i1 %.not.i, label %_ZN12_GLOBAL__N_116MergeCondVisitor22mergeEndIfIncompatibleEPK7AstNodeS3_.exit, label %12

12:                                               ; preds = %9
  %13 = getelementptr inbounds i8, ptr %0, i64 88
  %14 = load ptr, ptr %13, align 8
  %.not3.i = icmp eq ptr %14, %1
  br i1 %.not3.i, label %15, label %19

15:                                               ; preds = %12
  %16 = getelementptr inbounds i8, ptr %0, i64 72
  %17 = load ptr, ptr %16, align 8
  %18 = tail call noundef zeroext i1 @_ZN7AstNode12sameTreeIterEPKS_S1_bb(ptr noundef nonnull %6, ptr noundef %17, i1 noundef zeroext true, i1 noundef zeroext false)
  br i1 %18, label %_ZN12_GLOBAL__N_116MergeCondVisitor22mergeEndIfIncompatibleEPK7AstNodeS3_.exit, label %19

19:                                               ; preds = %15, %12
  tail call fastcc void @_ZN12_GLOBAL__N_116MergeCondVisitor8mergeEndEv(ptr noundef nonnull align 8 dereferenceable(120) %0)
  br label %_ZN12_GLOBAL__N_116MergeCondVisitor22mergeEndIfIncompatibleEPK7AstNodeS3_.exit

_ZN12_GLOBAL__N_116MergeCondVisitor22mergeEndIfIncompatibleEPK7AstNodeS3_.exit: ; preds = %9, %15, %19
  tail call fastcc void @_ZN12_GLOBAL__N_116MergeCondVisitor9addToListEP11AstNodeStmtP11AstNodeExpr(ptr noundef nonnull align 8 dereferenceable(120) %0, ptr noundef %1, ptr noundef nonnull %6)
  br label %25

20:                                               ; preds = %2
  %21 = getelementptr inbounds i8, ptr %0, i64 64
  %22 = load ptr, ptr %21, align 8
  %.not9 = icmp eq ptr %22, null
  br i1 %.not9, label %25, label %23

23:                                               ; preds = %20
  %24 = tail call fastcc noundef zeroext i1 @_ZN12_GLOBAL__N_116MergeCondVisitor24addIfHelpfulElseEndMergeEP11AstNodeStmt(ptr noundef nonnull align 8 dereferenceable(120) %0, ptr noundef %1)
  br label %25

25:                                               ; preds = %20, %23, %7, %_ZN12_GLOBAL__N_116MergeCondVisitor22mergeEndIfIncompatibleEPK7AstNodeS3_.exit
  ret void
}